target datalayout = "e-m:e-p270:32:32-p271:32:32-p272:64:64-i64:64-i128:128-f80:128-n8:16:32:64-S128"
target triple = "x86_64-pc-linux-gnu"

@hf_avaya_subtype = internal global i32 0, align 4
@hf_avaya_poe = internal global i32 0, align 4
@hf_avaya_call_server = internal global i32 0, align 4
@hf_avaya_cna_server = internal global i32 0, align 4
@hf_avaya_file_server = internal global i32 0, align 4
@hf_avaya_dot1q = internal global i32 0, align 4
@hf_avaya_ipphone = internal global i32 0, align 4
@hf_avaya_ipphone_ip = internal global i32 0, align 4
@hf_avaya_ipphone_mask = internal global i32 0, align 4
@hf_avaya_ipphone_gateway = internal global i32 0, align 4
@hf_unknown_subtype_content = internal global i32 0, align 4
@ett_avaya_ipphone_tlv = internal global i32 0, align 4

; Function Attrs: null_pointer_is_valid sspstrong uwtable
define internal void @dissect_avaya_tlv(ptr noundef %0, ptr noundef %1, ptr noundef %2) #0 {
  %4 = alloca ptr, align 8
  %5 = alloca ptr, align 8
  %6 = alloca ptr, align 8
  %7 = alloca i8, align 1
  %8 = alloca i32, align 4
  %9 = alloca ptr, align 8
  %10 = alloca ptr, align 8
  store ptr %0, ptr %4, align 8
  store ptr %1, ptr %5, align 8
  store ptr %2, ptr %6, align 8
  call void @llvm.lifetime.start.p0(i64 1, ptr %7) #9
  call void @llvm.lifetime.start.p0(i64 4, ptr %8) #9
  store i32 0, ptr %8, align 4
  call void @llvm.lifetime.start.p0(i64 8, ptr %9) #9
  store ptr null, ptr %9, align 8
  call void @llvm.lifetime.start.p0(i64 8, ptr %10) #9
  store ptr null, ptr %10, align 8
  %11 = load ptr, ptr %4, align 8
  %12 = load i32, ptr %8, align 4
  %13 = call zeroext i8 @tvb_get_uint8(ptr noundef %11, i32 noundef %12)
  store i8 %13, ptr %7, align 1
  %14 = load ptr, ptr %6, align 8
  %15 = load i32, ptr @hf_avaya_subtype, align 4
  %16 = load ptr, ptr %4, align 8
  %17 = load i32, ptr %8, align 4
  %18 = call ptr @proto_tree_add_item(ptr noundef %14, i32 noundef %15, ptr noundef %16, i32 noundef %17, i32 noundef 1, i32 noundef 0)
  %19 = load i32, ptr %8, align 4
  %20 = add i32 %19, 1
  store i32 %20, ptr %8, align 4
  %21 = load i8, ptr %7, align 1
  %22 = zext i8 %21 to i32
  switch i32 %22, label %79 [
    i32 1, label %23
    i32 3, label %29
    i32 4, label %35
    i32 5, label %61
    i32 6, label %67
    i32 7, label %73
  ]

23:                                               ; preds = %3
  %24 = load ptr, ptr %6, align 8
  %25 = load i32, ptr @hf_avaya_poe, align 4
  %26 = load ptr, ptr %4, align 8
  %27 = load i32, ptr %8, align 4
  %28 = call ptr @proto_tree_add_item(ptr noundef %24, i32 noundef %25, ptr noundef %26, i32 noundef %27, i32 noundef 7, i32 noundef 0)
  br label %85

29:                                               ; preds = %3
  %30 = load ptr, ptr %6, align 8
  %31 = load i32, ptr @hf_avaya_call_server, align 4
  %32 = load ptr, ptr %4, align 8
  %33 = load i32, ptr %8, align 4
  %34 = call ptr @proto_tree_add_item(ptr noundef %30, i32 noundef %31, ptr noundef %32, i32 noundef %33, i32 noundef 4, i32 noundef 0)
  br label %85

35:                                               ; preds = %3
  %36 = load ptr, ptr %6, align 8
  %37 = load i32, ptr @hf_avaya_ipphone, align 4
  %38 = load ptr, ptr %4, align 8
  %39 = load i32, ptr %8, align 4
  %40 = call ptr @proto_tree_add_item(ptr noundef %36, i32 noundef %37, ptr noundef %38, i32 noundef %39, i32 noundef 12, i32 noundef 0)
  store ptr %40, ptr %10, align 8
  %41 = load ptr, ptr %10, align 8
  %42 = load i32, ptr @ett_avaya_ipphone_tlv, align 4
  %43 = call ptr @proto_item_add_subtree(ptr noundef %41, i32 noundef %42)
  store ptr %43, ptr %9, align 8
  %44 = load ptr, ptr %9, align 8
  %45 = load i32, ptr @hf_avaya_ipphone_ip, align 4
  %46 = load ptr, ptr %4, align 8
  %47 = load i32, ptr %8, align 4
  %48 = call ptr @proto_tree_add_item(ptr noundef %44, i32 noundef %45, ptr noundef %46, i32 noundef %47, i32 noundef 4, i32 noundef 0)
  %49 = load ptr, ptr %9, align 8
  %50 = load i32, ptr @hf_avaya_ipphone_mask, align 4
  %51 = load ptr, ptr %4, align 8
  %52 = load i32, ptr %8, align 4
  %53 = add i32 %52, 4
  %54 = call ptr @proto_tree_add_item(ptr noundef %49, i32 noundef %50, ptr noundef %51, i32 noundef %53, i32 noundef 4, i32 noundef 0)
  %55 = load ptr, ptr %9, align 8
  %56 = load i32, ptr @hf_avaya_ipphone_gateway, align 4
  %57 = load ptr, ptr %4, align 8
  %58 = load i32, ptr %8, align 4
  %59 = add i32 %58, 8
  %60 = call ptr @proto_tree_add_item(ptr noundef %55, i32 noundef %56, ptr noundef %57, i32 noundef %59, i32 noundef 4, i32 noundef 0)
  br label %85

61:                                               ; preds = %3
  %62 = load ptr, ptr %6, align 8
  %63 = load i32, ptr @hf_avaya_cna_server, align 4
  %64 = load ptr, ptr %4, align 8
  %65 = load i32, ptr %8, align 4
  %66 = call ptr @proto_tree_add_item(ptr noundef %62, i32 noundef %63, ptr noundef %64, i32 noundef %65, i32 noundef 4, i32 noundef 0)
  br label %85

67:                                               ; preds = %3
  %68 = load ptr, ptr %6, align 8
  %69 = load i32, ptr @hf_avaya_file_server, align 4
  %70 = load ptr, ptr %4, align 8
  %71 = load i32, ptr %8, align 4
  %72 = call ptr @proto_tree_add_item(ptr noundef %68, i32 noundef %69, ptr noundef %70, i32 noundef %71, i32 noundef 4, i32 noundef 0)
  br label %85

73:                                               ; preds = %3
  %74 = load ptr, ptr %6, align 8
  %75 = load i32, ptr @hf_avaya_dot1q, align 4
  %76 = load ptr, ptr %4, align 8
  %77 = load i32, ptr %8, align 4
  %78 = call ptr @proto_tree_add_item(ptr noundef %74, i32 noundef %75, ptr noundef %76, i32 noundef %77, i32 noundef 1, i32 noundef 0)
  br label %85

79:                                               ; preds = %3
  %80 = load ptr, ptr %6, align 8
  %81 = load i32, ptr @hf_unknown_subtype_content, align 4
  %82 = load ptr, ptr %4, align 8
  %83 = load i32, ptr %8, align 4
  %84 = call ptr @proto_tree_add_item(ptr noundef %80, i32 noundef %81, ptr noundef %82, i32 noundef %83, i32 noundef -1, i32 noundef 0)
  br label %85

85:                                               ; preds = %79, %73, %67, %61, %35, %29, %23
  call void @llvm.lifetime.end.p0(i64 8, ptr %10) #9
  call void @llvm.lifetime.end.p0(i64 8, ptr %9) #9
  call void @llvm.lifetime.end.p0(i64 4, ptr %8) #9
  call void @llvm.lifetime.end.p0(i64 1, ptr %7) #9
  ret void
}