; Function Attrs: null_pointer_is_valid sspstrong uwtable
define internal fastcc void @dissect_avaya_tlv(ptr noundef %0, ptr noundef %1) unnamed_addr #0 {
  %3 = tail call zeroext i8 @tvb_get_uint8(ptr noundef %0, i32 noundef 0)
  %4 = load i32, ptr @hf_avaya_subtype, align 4
  %5 = tail call ptr @proto_tree_add_item(ptr noundef %1, i32 noundef %4, ptr noundef %0, i32 noundef 0, i32 noundef 1, i32 noundef 0)
  switch i8 %3, label %32 [
    i8 1, label %6
    i8 3, label %9
    i8 4, label %12
    i8 5, label %23
    i8 6, label %26
    i8 7, label %29
  ]

6:                                                ; preds = %2
  %7 = load i32, ptr @hf_avaya_poe, align 4
  %8 = tail call ptr @proto_tree_add_item(ptr noundef %1, i32 noundef %7, ptr noundef %0, i32 noundef 1, i32 noundef 7, i32 noundef 0)
  br label %35

9:                                                ; preds = %2
  %10 = load i32, ptr @hf_avaya_call_server, align 4
  %11 = tail call ptr @proto_tree_add_item(ptr noundef %1, i32 noundef %10, ptr noundef %0, i32 noundef 1, i32 noundef 4, i32 noundef 0)
  br label %35

12:                                               ; preds = %2
  %13 = load i32, ptr @hf_avaya_ipphone, align 4
  %14 = tail call ptr @proto_tree_add_item(ptr noundef %1, i32 noundef %13, ptr noundef %0, i32 noundef 1, i32 noundef 12, i32 noundef 0)
  %15 = load i32, ptr @ett_avaya_ipphone_tlv, align 4
  %16 = tail call ptr @proto_item_add_subtree(ptr noundef %14, i32 noundef %15)
  %17 = load i32, ptr @hf_avaya_ipphone_ip, align 4
  %18 = tail call ptr @proto_tree_add_item(ptr noundef %16, i32 noundef %17, ptr noundef %0, i32 noundef 1, i32 noundef 4, i32 noundef 0)
  %19 = load i32, ptr @hf_avaya_ipphone_mask, align 4
  %20 = tail call ptr @proto_tree_add_item(ptr noundef %16, i32 noundef %19, ptr noundef %0, i32 noundef 5, i32 noundef 4, i32 noundef 0)
  %21 = load i32, ptr @hf_avaya_ipphone_gateway, align 4
  %22 = tail call ptr @proto_tree_add_item(ptr noundef %16, i32 noundef %21, ptr noundef %0, i32 noundef 9, i32 noundef 4, i32 noundef 0)
  br label %35

23:                                               ; preds = %2
  %24 = load i32, ptr @hf_avaya_cna_server, align 4
  %25 = tail call ptr @proto_tree_add_item(ptr noundef %1, i32 noundef %24, ptr noundef %0, i32 noundef 1, i32 noundef 4, i32 noundef 0)
  br label %35

26:                                               ; preds = %2
  %27 = load i32, ptr @hf_avaya_file_server, align 4
  %28 = tail call ptr @proto_tree_add_item(ptr noundef %1, i32 noundef %27, ptr noundef %0, i32 noundef 1, i32 noundef 4, i32 noundef 0)
  br label %35

29:                                               ; preds = %2
  %30 = load i32, ptr @hf_avaya_dot1q, align 4
  %31 = tail call ptr @proto_tree_add_item(ptr noundef %1, i32 noundef %30, ptr noundef %0, i32 noundef 1, i32 noundef 1, i32 noundef 0)
  br label %35

32:                                               ; preds = %2
  %33 = load i32, ptr @hf_unknown_subtype_content, align 4
  %34 = tail call ptr @proto_tree_add_item(ptr noundef %1, i32 noundef %33, ptr noundef %0, i32 noundef 1, i32 noundef -1, i32 noundef 0)
  br label %35

35:                                               ; preds = %32, %29, %26, %23, %12, %9, %6
  ret void
}